target datalayout = "e-m:e-p270:32:32-p271:32:32-p272:64:64-i64:64-i128:128-f80:128-n8:16:32:64-S128"
target triple = "x86_64-pc-linux-gnu"

%struct.s_p_hashtbl = type { %struct.re_pattern_buffer, [173 x ptr] }
%struct.re_pattern_buffer = type { ptr, i64, i64, i64, ptr, ptr, i64, i8 }
%struct.s_p_values = type { ptr, i32, i32, i32, ptr, ptr, ptr, ptr }

@.str = private unnamed_addr constant [15 x i8] c"parse_config.c\00", align 1
@keyvalue_pattern = internal global ptr @.str.33, align 8
@.str.1 = private unnamed_addr constant [34 x i8] c"keyvalue regex compilation failed\00", align 1
@__func__._hashtbl_copy_keys = private unnamed_addr constant [19 x i8] c"_hashtbl_copy_keys\00", align 1

; Function Attrs: nounwind uwtable
define internal i32 @_conf_hashtbl_index(ptr noundef %0) #0 {
  %2 = alloca ptr, align 8
  %3 = alloca i32, align 4
  %4 = alloca i32, align 4
  %5 = alloca i32, align 4
  store ptr %0, ptr %2, align 8
  call void @llvm.lifetime.start.p0(i64 4, ptr %3) #9
  store i32 0, ptr %3, align 4
  br label %6

6:                                                ; preds = %25, %1
  %7 = load ptr, ptr %2, align 8
  %8 = load i8, ptr %7, align 1
  %9 = sext i8 %8 to i32
  %10 = icmp ne i32 %9, 0
  br i1 %10, label %11, label %28

11:                                               ; preds = %6
  call void @llvm.lifetime.start.p0(i64 4, ptr %4) #9
  %12 = call ptr @__ctype_tolower_loc() #10
  %13 = load ptr, ptr %12, align 8
  %14 = load ptr, ptr %2, align 8
  %15 = load i8, ptr %14, align 1
  %16 = sext i8 %15 to i32
  %17 = sext i32 %16 to i64
  %18 = getelementptr inbounds i32, ptr %13, i64 %17
  %19 = load i32, ptr %18, align 4
  store i32 %19, ptr %4, align 4
  %20 = load i32, ptr %4, align 4
  store i32 %20, ptr %5, align 4
  call void @llvm.lifetime.end.p0(i64 4, ptr %4) #9
  %21 = load i32, ptr %5, align 4
  %22 = load i32, ptr %3, align 4
  %23 = mul i32 31, %22
  %24 = add i32 %21, %23
  store i32 %24, ptr %3, align 4
  br label %25

25:                                               ; preds = %11
  %26 = load ptr, ptr %2, align 8
  %27 = getelementptr inbounds nuw i8, ptr %26, i32 1
  store ptr %27, ptr %2, align 8
  br label %6, !llvm.loop !56

28:                                               ; preds = %6
  %29 = load i32, ptr %3, align 4
  %30 = urem i32 %29, 173
  call void @llvm.lifetime.end.p0(i64 4, ptr %3) #9
  ret i32 %30
}

; Function Attrs: nounwind uwtable
define internal void @_conf_hashtbl_insert(ptr noundef %0, ptr noundef %1) #0 {
  %3 = alloca ptr, align 8
  %4 = alloca ptr, align 8
  %5 = alloca i32, align 4
  store ptr %0, ptr %3, align 8
  store ptr %1, ptr %4, align 8
  call void @llvm.lifetime.start.p0(i64 4, ptr %5) #9
  %6 = load ptr, ptr %4, align 8
  %7 = getelementptr inbounds nuw %struct.s_p_values, ptr %6, i32 0, i32 0
  %8 = load ptr, ptr %7, align 8
  %9 = call i32 @_conf_hashtbl_index(ptr noundef %8)
  store i32 %9, ptr %5, align 4
  %10 = load ptr, ptr %3, align 8
  %11 = getelementptr inbounds nuw %struct.s_p_hashtbl, ptr %10, i32 0, i32 1
  %12 = load i32, ptr %5, align 4
  %13 = sext i32 %12 to i64
  %14 = getelementptr inbounds [173 x ptr], ptr %11, i64 0, i64 %13
  %15 = load ptr, ptr %14, align 8
  %16 = load ptr, ptr %4, align 8
  %17 = getelementptr inbounds nuw %struct.s_p_values, ptr %16, i32 0, i32 7
  store ptr %15, ptr %17, align 8
  %18 = load ptr, ptr %4, align 8
  %19 = load ptr, ptr %3, align 8
  %20 = getelementptr inbounds nuw %struct.s_p_hashtbl, ptr %19, i32 0, i32 1
  %21 = load i32, ptr %5, align 4
  %22 = sext i32 %21 to i64
  %23 = getelementptr inbounds [173 x ptr], ptr %20, i64 0, i64 %22
  store ptr %18, ptr %23, align 8
  call void @llvm.lifetime.end.p0(i64 4, ptr %5) #9
  ret void
}

; Function Attrs: nounwind uwtable
define dso_local ptr @_hashtbl_copy_keys(ptr noundef %0) #0 {
  %2 = alloca ptr, align 8
  %3 = alloca ptr, align 8
  %4 = alloca i32, align 4
  %5 = alloca i32, align 4
  %6 = alloca ptr, align 8
  %7 = alloca ptr, align 8
  store ptr %0, ptr %2, align 8
  call void @llvm.lifetime.start.p0(i64 8, ptr %3) #9
  %8 = call ptr @slurm_xcalloc(i64 noundef 1, i64 noundef 1448, i1 noundef zeroext true, i1 noundef zeroext false, ptr noundef @.str, i32 noundef 502, ptr noundef @__func__._hashtbl_copy_keys)
  store ptr %8, ptr %3, align 8
  call void @llvm.lifetime.start.p0(i64 4, ptr %4) #9
  store i32 0, ptr %4, align 4
  br label %9

9:                                                ; preds = %59, %1
  %10 = load i32, ptr %4, align 4
  %11 = icmp slt i32 %10, 173
  br i1 %11, label %13, label %12

12:                                               ; preds = %9
  store i32 2, ptr %5, align 4
  call void @llvm.lifetime.end.p0(i64 4, ptr %4) #9
  br label %62

13:                                               ; preds = %9
  call void @llvm.lifetime.start.p0(i64 8, ptr %6) #9
  %14 = load ptr, ptr %2, align 8
  %15 = getelementptr inbounds nuw %struct.s_p_hashtbl, ptr %14, i32 0, i32 1
  %16 = load i32, ptr %4, align 4
  %17 = sext i32 %16 to i64
  %18 = getelementptr inbounds [173 x ptr], ptr %15, i64 0, i64 %17
  %19 = load ptr, ptr %18, align 8
  store ptr %19, ptr %6, align 8
  br label %20

20:                                               ; preds = %54, %13
  %21 = load ptr, ptr %6, align 8
  %22 = icmp ne ptr %21, null
  br i1 %22, label %24, label %23

23:                                               ; preds = %20
  store i32 5, ptr %5, align 4
  call void @llvm.lifetime.end.p0(i64 8, ptr %6) #9
  br label %58

24:                                               ; preds = %20
  call void @llvm.lifetime.start.p0(i64 8, ptr %7) #9
  %25 = call ptr @slurm_xcalloc(i64 noundef 1, i64 noundef 56, i1 noundef zeroext true, i1 noundef zeroext false, ptr noundef @.str, i32 noundef 509, ptr noundef @__func__._hashtbl_copy_keys)
  store ptr %25, ptr %7, align 8
  %26 = load ptr, ptr %6, align 8
  %27 = getelementptr inbounds nuw %struct.s_p_values, ptr %26, i32 0, i32 0
  %28 = load ptr, ptr %27, align 8
  %29 = call ptr @xstrdup(ptr noundef %28)
  %30 = load ptr, ptr %7, align 8
  %31 = getelementptr inbounds nuw %struct.s_p_values, ptr %30, i32 0, i32 0
  store ptr %29, ptr %31, align 8
  %32 = load ptr, ptr %6, align 8
  %33 = getelementptr inbounds nuw %struct.s_p_values, ptr %32, i32 0, i32 2
  %34 = load i32, ptr %33, align 4
  %35 = load ptr, ptr %7, align 8
  %36 = getelementptr inbounds nuw %struct.s_p_values, ptr %35, i32 0, i32 2
  store i32 %34, ptr %36, align 4
  %37 = load ptr, ptr %6, align 8
  %38 = getelementptr inbounds nuw %struct.s_p_values, ptr %37, i32 0, i32 1
  %39 = load i32, ptr %38, align 8
  %40 = load ptr, ptr %7, align 8
  %41 = getelementptr inbounds nuw %struct.s_p_values, ptr %40, i32 0, i32 1
  store i32 %39, ptr %41, align 8
  %42 = load ptr, ptr %6, align 8
  %43 = getelementptr inbounds nuw %struct.s_p_values, ptr %42, i32 0, i32 5
  %44 = load ptr, ptr %43, align 8
  %45 = load ptr, ptr %7, align 8
  %46 = getelementptr inbounds nuw %struct.s_p_values, ptr %45, i32 0, i32 5
  store ptr %44, ptr %46, align 8
  %47 = load ptr, ptr %6, align 8
  %48 = getelementptr inbounds nuw %struct.s_p_values, ptr %47, i32 0, i32 6
  %49 = load ptr, ptr %48, align 8
  %50 = load ptr, ptr %7, align 8
  %51 = getelementptr inbounds nuw %struct.s_p_values, ptr %50, i32 0, i32 6
  store ptr %49, ptr %51, align 8
  %52 = load ptr, ptr %3, align 8
  %53 = load ptr, ptr %7, align 8
  call void @_conf_hashtbl_insert(ptr noundef %52, ptr noundef %53)
  call void @llvm.lifetime.end.p0(i64 8, ptr %7) #9
  br label %54

54:                                               ; preds = %24
  %55 = load ptr, ptr %6, align 8
  %56 = getelementptr inbounds nuw %struct.s_p_values, ptr %55, i32 0, i32 7
  %57 = load ptr, ptr %56, align 8
  store ptr %57, ptr %6, align 8
  br label %20, !llvm.loop !25

58:                                               ; preds = %23
  br label %59

59:                                               ; preds = %58
  %60 = load i32, ptr %4, align 4
  %61 = add nsw i32 %60, 1
  store i32 %61, ptr %4, align 4
  br label %9, !llvm.loop !26

62:                                               ; preds = %12
  %63 = load ptr, ptr %3, align 8
  %64 = getelementptr inbounds nuw %struct.s_p_hashtbl, ptr %63, i32 0, i32 0
  %65 = load ptr, ptr @keyvalue_pattern, align 8
  %66 = call i32 @regcomp(ptr noundef %64, ptr noundef %65, i32 noundef 1)
  %67 = icmp ne i32 %66, 0
  br i1 %67, label %68, label %69

68:                                               ; preds = %62
  call void (ptr, ...) @fatal(ptr noundef @.str.1) #11
  unreachable

69:                                               ; preds = %62
  %70 = load ptr, ptr %3, align 8
  store i32 1, ptr %5, align 4
  call void @llvm.lifetime.end.p0(i64 8, ptr %3) #9
  ret ptr %70
}