; Function Attrs: nounwind uwtable
define dso_local ptr @_hashtbl_copy_keys(ptr noundef readonly captures(none) %0) local_unnamed_addr #0 {
  %2 = tail call ptr @slurm_xcalloc(i64 noundef 1, i64 noundef 1448, i1 noundef zeroext true, i1 noundef zeroext false, ptr noundef nonnull @.str, i32 noundef 502, ptr noundef nonnull @__func__._hashtbl_copy_keys) #13
  %3 = getelementptr inbounds nuw i8, ptr %0, i64 64
  %4 = getelementptr inbounds nuw i8, ptr %2, i64 64
  br label %7

5:                                                ; preds = %._crit_edge
  %6 = tail call i32 @regcomp(ptr noundef %2, ptr noundef nonnull @.str.33, i32 noundef 1) #13
  %.not = icmp eq i32 %6, 0
  br i1 %.not, label %43, label %42

7:                                                ; preds = %1, %._crit_edge
  %indvars.iv = phi i64 [ 0, %1 ], [ %indvars.iv.next, %._crit_edge ]
  %8 = getelementptr inbounds nuw [173 x ptr], ptr %3, i64 0, i64 %indvars.iv
  %.01921 = load ptr, ptr %8, align 8
  %.not2022 = icmp eq ptr %.01921, null
  br i1 %.not2022, label %._crit_edge, label %.lr.ph

._crit_edge:                                      ; preds = %_conf_hashtbl_insert.exit, %7
  %indvars.iv.next = add nuw nsw i64 %indvars.iv, 1
  %exitcond.not = icmp eq i64 %indvars.iv.next, 173
  br i1 %exitcond.not, label %5, label %7, !llvm.loop !38

.lr.ph:                                           ; preds = %7, %_conf_hashtbl_insert.exit
  %.01923 = phi ptr [ %.019, %_conf_hashtbl_insert.exit ], [ %.01921, %7 ]
  %9 = tail call ptr @slurm_xcalloc(i64 noundef 1, i64 noundef 56, i1 noundef zeroext true, i1 noundef zeroext false, ptr noundef nonnull @.str, i32 noundef 509, ptr noundef nonnull @__func__._hashtbl_copy_keys) #13
  %10 = load ptr, ptr %.01923, align 8
  %11 = tail call ptr @xstrdup(ptr noundef %10) #13
  store ptr %11, ptr %9, align 8
  %12 = getelementptr inbounds nuw i8, ptr %.01923, i64 12
  %13 = load i32, ptr %12, align 4
  %14 = getelementptr inbounds nuw i8, ptr %9, i64 12
  store i32 %13, ptr %14, align 4
  %15 = getelementptr inbounds nuw i8, ptr %.01923, i64 8
  %16 = load i32, ptr %15, align 8
  %17 = getelementptr inbounds nuw i8, ptr %9, i64 8
  store i32 %16, ptr %17, align 8
  %18 = getelementptr inbounds nuw i8, ptr %.01923, i64 32
  %19 = load ptr, ptr %18, align 8
  %20 = getelementptr inbounds nuw i8, ptr %9, i64 32
  store ptr %19, ptr %20, align 8
  %21 = getelementptr inbounds nuw i8, ptr %.01923, i64 40
  %22 = load ptr, ptr %21, align 8
  %23 = getelementptr inbounds nuw i8, ptr %9, i64 40
  store ptr %22, ptr %23, align 8
  %24 = load i8, ptr %11, align 1
  %.not8.i.i = icmp eq i8 %24, 0
  br i1 %.not8.i.i, label %_conf_hashtbl_insert.exit, label %.lr.ph.i.i

.lr.ph.i.i:                                       ; preds = %.lr.ph
  %25 = tail call ptr @__ctype_tolower_loc() #15
  %26 = load ptr, ptr %25, align 8
  br label %27

27:                                               ; preds = %27, %.lr.ph.i.i
  %28 = phi i8 [ %24, %.lr.ph.i.i ], [ %35, %27 ]
  %.010.i.i = phi ptr [ %11, %.lr.ph.i.i ], [ %34, %27 ]
  %.069.i.i = phi i32 [ 0, %.lr.ph.i.i ], [ %33, %27 ]
  %29 = sext i8 %28 to i64
  %30 = getelementptr inbounds i32, ptr %26, i64 %29
  %31 = load i32, ptr %30, align 4
  %32 = mul i32 %.069.i.i, 31
  %33 = add i32 %31, %32
  %34 = getelementptr inbounds nuw i8, ptr %.010.i.i, i64 1
  %35 = load i8, ptr %34, align 1
  %.not.i.i = icmp eq i8 %35, 0
  br i1 %.not.i.i, label %._crit_edge.loopexit.i.i, label %27, !llvm.loop !28

._crit_edge.loopexit.i.i:                         ; preds = %27
  %36 = urem i32 %33, 173
  %37 = zext nneg i32 %36 to i64
  br label %_conf_hashtbl_insert.exit

_conf_hashtbl_insert.exit:                        ; preds = %.lr.ph, %._crit_edge.loopexit.i.i
  %.06.lcssa.i.i = phi i64 [ 0, %.lr.ph ], [ %37, %._crit_edge.loopexit.i.i ]
  %38 = getelementptr inbounds nuw [173 x ptr], ptr %4, i64 0, i64 %.06.lcssa.i.i
  %39 = load ptr, ptr %38, align 8
  %40 = getelementptr inbounds nuw i8, ptr %9, i64 48
  store ptr %39, ptr %40, align 8
  store ptr %9, ptr %38, align 8
  %41 = getelementptr inbounds nuw i8, ptr %.01923, i64 48
  %.019 = load ptr, ptr %41, align 8
  %.not20 = icmp eq ptr %.019, null
  br i1 %.not20, label %._crit_edge, label %.lr.ph, !llvm.loop !39

42:                                               ; preds = %5
  tail call void (ptr, ...) @fatal(ptr noundef nonnull @.str.1) #16
  unreachable

43:                                               ; preds = %5
  ret ptr %2
}